; Function Attrs: mustprogress nounwind uwtable
define void @_ZN9grpc_core8channelz14SubchannelNodeD2Ev(ptr noundef nonnull align 8 dereferenceable(216) %this) unnamed_addr #4 align 2 personality ptr @__gxx_personality_v0 {
entry:
  store ptr getelementptr inbounds ({ [5 x ptr] }, ptr @_ZTVN9grpc_core8channelz14SubchannelNodeE, i64 0, i32 0, i64 2), ptr %this, align 8
  %trace_ = getelementptr inbounds i8, ptr %this, i64 152
  tail call void @_ZN9grpc_core8channelz12ChannelTraceD1Ev(ptr noundef nonnull align 8 dereferenceable(64) %trace_) #16
  %target_ = getelementptr inbounds i8, ptr %this, i64 88
  tail call void @_ZNSt7__cxx1112basic_stringIcSt11char_traitsIcESaIcEED1Ev(ptr noundef nonnull align 8 dereferenceable(32) %target_) #16
  %child_socket_ = getelementptr inbounds i8, ptr %this, i64 80
  %0 = load ptr, ptr %child_socket_, align 8
  %cmp.not.i = icmp eq ptr %0, null
  br i1 %cmp.not.i, label %_ZN9grpc_core13RefCountedPtrINS_8channelz10SocketNodeEED2Ev.exit, label %if.then.i

if.then.i:                                        ; preds = %entry
  %refs_.i.i = getelementptr inbounds i8, ptr %0, i64 8
  %1 = atomicrmw sub ptr %refs_.i.i, i64 1 acq_rel, align 8
  %cmp.i.i.i = icmp eq i64 %1, 1
  br i1 %cmp.i.i.i, label %if.then.i.i, label %_ZN9grpc_core13RefCountedPtrINS_8channelz10SocketNodeEED2Ev.exit

if.then.i.i:                                      ; preds = %if.then.i
  %vtable.i.i.i = load ptr, ptr %0, align 8
  %vfn.i.i.i = getelementptr inbounds i8, ptr %vtable.i.i.i, i64 8
  %2 = load ptr, ptr %vfn.i.i.i, align 8
  tail call void %2(ptr noundef nonnull align 8 dereferenceable(64) %0) #16
  br label %_ZN9grpc_core13RefCountedPtrINS_8channelz10SocketNodeEED2Ev.exit

_ZN9grpc_core13RefCountedPtrINS_8channelz10SocketNodeEED2Ev.exit: ; preds = %entry, %if.then.i, %if.then.i.i
  %socket_mu_ = getelementptr inbounds i8, ptr %this, i64 72
  tail call void @_ZN4absl12lts_202308025MutexD1Ev(ptr noundef nonnull align 8 dereferenceable(8) %socket_mu_) #16
  tail call void @_ZN9grpc_core8channelz8BaseNodeD2Ev(ptr noundef nonnull align 8 dereferenceable(64) %this) #16
  ret void
}